target datalayout = "e-m:e-p270:32:32-p271:32:32-p272:64:64-i64:64-i128:128-f80:128-n8:16:32:64-S128"
target triple = "x86_64-unknown-linux-gnu"

%"class.llvh::FoldingSetBase" = type { ptr, ptr, i32, i32 }

; Function Attrs: mustprogress nounwind uwtable
define hidden noundef nonnull align 8 dereferenceable(24) ptr @_ZN4llvh14FoldingSetBaseaSEOS0_(ptr noundef nonnull align 8 dereferenceable(24) %this, ptr noundef nonnull align 8 dereferenceable(24) %RHS) #0 align 2 {
entry:
  %this.addr = alloca ptr, align 8
  %RHS.addr = alloca ptr, align 8
  store ptr %this, ptr %this.addr, align 8
  store ptr %RHS, ptr %RHS.addr, align 8
  %this1 = load ptr, ptr %this.addr, align 8
  %Buckets = getelementptr inbounds %"class.llvh::FoldingSetBase", ptr %this1, i32 0, i32 1
  %0 = load ptr, ptr %Buckets, align 8
  call void @free(ptr noundef %0) #8
  %1 = load ptr, ptr %RHS.addr, align 8
  %Buckets2 = getelementptr inbounds %"class.llvh::FoldingSetBase", ptr %1, i32 0, i32 1
  %2 = load ptr, ptr %Buckets2, align 8
  %Buckets3 = getelementptr inbounds %"class.llvh::FoldingSetBase", ptr %this1, i32 0, i32 1
  store ptr %2, ptr %Buckets3, align 8
  %3 = load ptr, ptr %RHS.addr, align 8
  %NumBuckets = getelementptr inbounds %"class.llvh::FoldingSetBase", ptr %3, i32 0, i32 2
  %4 = load i32, ptr %NumBuckets, align 8
  %NumBuckets4 = getelementptr inbounds %"class.llvh::FoldingSetBase", ptr %this1, i32 0, i32 2
  store i32 %4, ptr %NumBuckets4, align 8
  %5 = load ptr, ptr %RHS.addr, align 8
  %NumNodes = getelementptr inbounds %"class.llvh::FoldingSetBase", ptr %5, i32 0, i32 3
  %6 = load i32, ptr %NumNodes, align 4
  %NumNodes5 = getelementptr inbounds %"class.llvh::FoldingSetBase", ptr %this1, i32 0, i32 3
  store i32 %6, ptr %NumNodes5, align 4
  %7 = load ptr, ptr %RHS.addr, align 8
  %Buckets6 = getelementptr inbounds %"class.llvh::FoldingSetBase", ptr %7, i32 0, i32 1
  store ptr null, ptr %Buckets6, align 8
  %8 = load ptr, ptr %RHS.addr, align 8
  %NumBuckets7 = getelementptr inbounds %"class.llvh::FoldingSetBase", ptr %8, i32 0, i32 2
  store i32 0, ptr %NumBuckets7, align 8
  %9 = load ptr, ptr %RHS.addr, align 8
  %NumNodes8 = getelementptr inbounds %"class.llvh::FoldingSetBase", ptr %9, i32 0, i32 3
  store i32 0, ptr %NumNodes8, align 4
  ret ptr %this1
}