; Function Attrs: mustprogress nounwind willreturn uwtable
define hidden noundef nonnull align 8 dereferenceable(24) ptr @_ZN4llvh14FoldingSetBaseaSEOS0_(ptr noundef nonnull returned align 8 dereferenceable(24) %this, ptr nocapture noundef nonnull align 8 dereferenceable(24) %RHS) local_unnamed_addr #6 align 2 {
entry:
  %Buckets = getelementptr inbounds i8, ptr %this, i64 8
  %0 = load ptr, ptr %Buckets, align 8
  tail call void @free(ptr noundef %0) #21
  %Buckets2 = getelementptr inbounds i8, ptr %RHS, i64 8
  %1 = load ptr, ptr %Buckets2, align 8
  store ptr %1, ptr %Buckets, align 8
  %NumBuckets = getelementptr inbounds i8, ptr %RHS, i64 16
  %2 = load i32, ptr %NumBuckets, align 8
  %NumBuckets4 = getelementptr inbounds i8, ptr %this, i64 16
  store i32 %2, ptr %NumBuckets4, align 8
  %NumNodes = getelementptr inbounds i8, ptr %RHS, i64 20
  %3 = load i32, ptr %NumNodes, align 4
  %NumNodes5 = getelementptr inbounds i8, ptr %this, i64 20
  store i32 %3, ptr %NumNodes5, align 4
  tail call void @llvm.memset.p0.i64(ptr noundef nonnull align 8 dereferenceable(16) %Buckets2, i8 0, i64 16, i1 false)
  ret ptr %this
}